; Function Attrs: nounwind uwtable
define internal fastcc void @rcidm_update(ptr noundef captures(none) %0) unnamed_addr #0 {
  %2 = getelementptr inbounds nuw i8, ptr %0, i64 96
  %3 = load ptr, ptr %2, align 8, !tbaa !19
  %4 = icmp eq ptr %3, null
  br i1 %4, label %5, label %.thread

5:                                                ; preds = %1
  %6 = getelementptr inbounds nuw i8, ptr %0, i64 88
  %7 = load ptr, ptr %6, align 8, !tbaa !3
  %8 = tail call ptr @ossl_pqueue_peek(ptr noundef %7) #9
  %.not = icmp eq ptr %8, null
  br i1 %.not, label %10, label %9

9:                                                ; preds = %5
  tail call fastcc void @rcidm_transition_rcid(ptr noundef nonnull %0, ptr noundef %8, i32 noundef 1)
  br label %10

10:                                               ; preds = %9, %5
  %.pr = load ptr, ptr %2, align 8, !tbaa !19
  %.not19 = icmp eq ptr %.pr, null
  br i1 %.not19, label %22, label %.thread

.thread:                                          ; preds = %1, %10
  %11 = phi ptr [ %.pr, %10 ], [ %3, %1 ]
  %12 = getelementptr inbounds nuw i8, ptr %11, i64 16
  %13 = load i8, ptr %0, align 1, !tbaa !20
  %14 = load i8, ptr %12, align 1, !tbaa !20
  %.not.i.i = icmp ne i8 %13, %14
  %15 = icmp ugt i8 %13, 20
  %or.cond.i.i = or i1 %15, %.not.i.i
  br i1 %or.cond.i.i, label %ossl_quic_conn_id_eq.exit.thread.i, label %ossl_quic_conn_id_eq.exit.i

ossl_quic_conn_id_eq.exit.i:                      ; preds = %.thread
  %16 = getelementptr inbounds nuw i8, ptr %0, i64 1
  %17 = getelementptr inbounds nuw i8, ptr %11, i64 17
  %18 = zext nneg i8 %13 to i64
  %bcmp.i.i = tail call i32 @bcmp(ptr nonnull readonly %16, ptr nonnull readonly %17, i64 %18)
  %.not.i = icmp eq i32 %bcmp.i.i, 0
  br i1 %.not.i, label %rcidm_set_preferred_rcid.exit, label %ossl_quic_conn_id_eq.exit.thread.i

ossl_quic_conn_id_eq.exit.thread.i:               ; preds = %ossl_quic_conn_id_eq.exit.i, %.thread
  tail call void @llvm.memcpy.p0.p0.i64(ptr noundef nonnull align 8 dereferenceable(21) %0, ptr noundef nonnull readonly align 1 dereferenceable(21) %12, i64 21, i1 false), !tbaa.struct !14
  %19 = getelementptr inbounds nuw i8, ptr %0, i64 136
  %20 = load i8, ptr %19, align 8
  %21 = or i8 %20, 3
  store i8 %21, ptr %19, align 8
  br label %rcidm_set_preferred_rcid.exit

22:                                               ; preds = %10
  %23 = getelementptr inbounds nuw i8, ptr %0, i64 136
  %24 = load i8, ptr %23, align 8
  %25 = and i8 %24, 20
  %or.cond = icmp eq i8 %25, 16
  br i1 %or.cond, label %26, label %35

26:                                               ; preds = %22
  %27 = getelementptr inbounds nuw i8, ptr %0, i64 42
  %28 = load i8, ptr %0, align 1, !tbaa !20
  %29 = load i8, ptr %27, align 1, !tbaa !20
  %.not.i.i25 = icmp ne i8 %28, %29
  %30 = icmp ugt i8 %28, 20
  %or.cond.i.i26 = or i1 %30, %.not.i.i25
  br i1 %or.cond.i.i26, label %ossl_quic_conn_id_eq.exit.thread.i30, label %ossl_quic_conn_id_eq.exit.i27

ossl_quic_conn_id_eq.exit.i27:                    ; preds = %26
  %31 = getelementptr inbounds nuw i8, ptr %0, i64 1
  %32 = getelementptr inbounds nuw i8, ptr %0, i64 43
  %33 = zext nneg i8 %28 to i64
  %bcmp.i.i28 = tail call i32 @bcmp(ptr nonnull readonly %31, ptr nonnull readonly %32, i64 %33)
  %.not.i29 = icmp eq i32 %bcmp.i.i28, 0
  br i1 %.not.i29, label %rcidm_set_preferred_rcid.exit, label %ossl_quic_conn_id_eq.exit.thread.i30

ossl_quic_conn_id_eq.exit.thread.i30:             ; preds = %ossl_quic_conn_id_eq.exit.i27, %26
  tail call void @llvm.memcpy.p0.p0.i64(ptr noundef nonnull align 8 dereferenceable(21) %0, ptr noundef nonnull readonly align 1 dereferenceable(21) %27, i64 21, i1 false), !tbaa.struct !14
  %34 = or i8 %24, 3
  store i8 %34, ptr %23, align 8
  br label %rcidm_set_preferred_rcid.exit

35:                                               ; preds = %22
  %36 = and i8 %24, 12
  %or.cond24 = icmp eq i8 %36, 8
  br i1 %or.cond24, label %37, label %46

37:                                               ; preds = %35
  %38 = getelementptr inbounds nuw i8, ptr %0, i64 21
  %39 = load i8, ptr %0, align 1, !tbaa !20
  %40 = load i8, ptr %38, align 1, !tbaa !20
  %.not.i.i32 = icmp ne i8 %39, %40
  %41 = icmp ugt i8 %39, 20
  %or.cond.i.i33 = or i1 %41, %.not.i.i32
  br i1 %or.cond.i.i33, label %ossl_quic_conn_id_eq.exit.thread.i37, label %ossl_quic_conn_id_eq.exit.i34

ossl_quic_conn_id_eq.exit.i34:                    ; preds = %37
  %42 = getelementptr inbounds nuw i8, ptr %0, i64 1
  %43 = getelementptr inbounds nuw i8, ptr %0, i64 22
  %44 = zext nneg i8 %39 to i64
  %bcmp.i.i35 = tail call i32 @bcmp(ptr nonnull readonly %42, ptr nonnull readonly %43, i64 %44)
  %.not.i36 = icmp eq i32 %bcmp.i.i35, 0
  br i1 %.not.i36, label %rcidm_set_preferred_rcid.exit, label %ossl_quic_conn_id_eq.exit.thread.i37

ossl_quic_conn_id_eq.exit.thread.i37:             ; preds = %ossl_quic_conn_id_eq.exit.i34, %37
  tail call void @llvm.memcpy.p0.p0.i64(ptr noundef nonnull align 8 dereferenceable(21) %0, ptr noundef nonnull readonly align 1 dereferenceable(21) %38, i64 21, i1 false), !tbaa.struct !14
  %45 = or i8 %24, 3
  store i8 %45, ptr %23, align 8
  br label %rcidm_set_preferred_rcid.exit

46:                                               ; preds = %35
  %47 = and i8 %24, -4
  %48 = or disjoint i8 %47, 1
  store i8 %48, ptr %23, align 8
  br label %rcidm_set_preferred_rcid.exit

rcidm_set_preferred_rcid.exit:                    ; preds = %ossl_quic_conn_id_eq.exit.thread.i37, %ossl_quic_conn_id_eq.exit.i34, %ossl_quic_conn_id_eq.exit.thread.i30, %ossl_quic_conn_id_eq.exit.i27, %ossl_quic_conn_id_eq.exit.thread.i, %ossl_quic_conn_id_eq.exit.i, %46
  ret void
}